TN:
SF:/home/mduenez/ECS36B/ECS36B-Project3/include/BusSystem.h
FN:35,35,_ZN10CBusSystemD0Ev
FN:35,35,_ZN10CBusSystemD2Ev
FNDA:0,_ZN10CBusSystemD0Ev
FNDA:1,_ZN10CBusSystemD2Ev
FNF:2
FNH:1
DA:35,1
LF:1
LH:1
end_of_record
TN:
SF:/home/mduenez/ECS36B/ECS36B-Project3/include/DataSource.h
FN:8,8,_ZN11CDataSourceD0Ev
FN:8,8,_ZN11CDataSourceD2Ev
FNDA:0,_ZN11CDataSourceD0Ev
FNDA:1,_ZN11CDataSourceD2Ev
FNF:2
FNH:1
DA:8,1
LF:1
LH:1
end_of_record
TN:
SF:/home/mduenez/ECS36B/ECS36B-Project3/include/StreetMap.h
FN:49,49,_ZN10CStreetMapD0Ev
FN:49,49,_ZN10CStreetMapD2Ev
FNDA:0,_ZN10CStreetMapD0Ev
FNDA:1,_ZN10CStreetMapD2Ev
FNF:2
FNH:1
DA:49,1
LF:1
LH:1
end_of_record
TN:
SF:/home/mduenez/ECS36B/ECS36B-Project3/include/XMLEntity.h
FN:17,24,_ZNK10SXMLEntity15AttributeExistsERKNSt7__cxx1112basic_stringIcSt11char_traitsIcESaIcEEE
FN:26,33,_ZNK10SXMLEntity14AttributeValueERKNSt7__cxx1112basic_stringIcSt11char_traitsIcESaIcEEE
FN:35,47,_ZN10SXMLEntity12SetAttributeERKNSt7__cxx1112basic_stringIcSt11char_traitsIcESaIcEEES7_
FNDA:1,_ZNK10SXMLEntity15AttributeExistsERKNSt7__cxx1112basic_stringIcSt11char_traitsIcESaIcEEE
FNDA:1,_ZNK10SXMLEntity14AttributeValueERKNSt7__cxx1112basic_stringIcSt11char_traitsIcESaIcEEE
FNDA:1,_ZN10SXMLEntity12SetAttributeERKNSt7__cxx1112basic_stringIcSt11char_traitsIcESaIcEEES7_
FNF:3
FNH:3
DA:17,1
DA:18,1
DA:19,1
DA:20,1
DA:23,0
DA:26,1
DA:27,1
DA:28,1
DA:29,1
DA:32,0
DA:35,1
DA:36,1
DA:37,0
DA:39,1
DA:40,0
DA:41,0
DA:42,0
DA:45,1
DA:46,1
LF:19
LH:13
end_of_record
TN:
SF:/home/mduenez/ECS36B/ECS36B-Project3/src/OpenStreetMap.cpp
FN:13,13,_ZN14COpenStreetMapD0Ev
FN:13,13,_ZN14COpenStreetMapD2Ev
FN:17,19,_ZNK14COpenStreetMap9NodeCountEv
FN:21,23,_ZNK14COpenStreetMap8WayCountEv
FN:26,28,_ZNK14COpenStreetMap11NodeByIndexEm
FN:31,33,_ZNK14COpenStreetMap8NodeByIDEm
FN:36,38,_ZNK14COpenStreetMap10WayByIndexEm
FN:41,43,_ZNK14COpenStreetMap7WayByIDEm
FN:8,11,_ZN14COpenStreetMapC2ESt10shared_ptrI10CXMLReaderE
FNDA:0,_ZN14COpenStreetMapD0Ev
FNDA:1,_ZN14COpenStreetMapD2Ev
FNDA:1,_ZNK14COpenStreetMap9NodeCountEv
FNDA:1,_ZNK14COpenStreetMap8WayCountEv
FNDA:0,_ZNK14COpenStreetMap11NodeByIndexEm
FNDA:0,_ZNK14COpenStreetMap8NodeByIDEm
FNDA:0,_ZNK14COpenStreetMap10WayByIndexEm
FNDA:0,_ZNK14COpenStreetMap7WayByIDEm
FNDA:1,_ZN14COpenStreetMapC2ESt10shared_ptrI10CXMLReaderE
FNF:9
FNH:4
DA:8,1
DA:10,1
DA:11,1
DA:13,1
DA:17,1
DA:18,1
DA:21,1
DA:22,1
DA:26,0
DA:27,0
DA:31,0
DA:32,0
DA:36,0
DA:37,0
DA:41,0
DA:42,0
LF:16
LH:8
end_of_record
TN:
SF:/home/mduenez/ECS36B/ECS36B-Project3/src/StringDataSource.cpp
FN:11,18,_ZN17CStringDataSource3GetERc
FN:20,26,_ZN17CStringDataSource4PeekERc
FN:28,40,_ZN17CStringDataSource4ReadERSt6vectorIcSaIcEEm
FN:3,5,_ZN17CStringDataSourceC2ERKNSt7__cxx1112basic_stringIcSt11char_traitsIcESaIcEEE
FN:7,9,_ZNK17CStringDataSource3EndEv
FNDA:32,_ZN17CStringDataSource3GetERc
FNDA:0,_ZN17CStringDataSource4PeekERc
FNDA:2,_ZN17CStringDataSource4ReadERSt6vectorIcSaIcEEm
FNDA:1,_ZN17CStringDataSourceC2ERKNSt7__cxx1112basic_stringIcSt11char_traitsIcESaIcEEE
FNDA:0,_ZNK17CStringDataSource3EndEv
FNF:5
FNH:3
DA:3,1
DA:5,1
DA:7,0
DA:8,0
DA:11,32
DA:12,32
DA:13,30
DA:14,30
DA:15,30
DA:17,2
DA:20,0
DA:21,0
DA:22,0
DA:23,0
DA:25,0
DA:28,2
DA:29,2
DA:30,32
DA:32,32
DA:33,30
DA:36,2
DA:39,2
LF:22
LH:15
end_of_record
TN:
SF:/home/mduenez/ECS36B/ECS36B-Project3/src/XMLBusSystem.cpp
FN:13,13,_ZN13CXMLBusSystemD0Ev
FN:13,13,_ZN13CXMLBusSystemD2Ev
FN:16,18,_ZNK13CXMLBusSystem9StopCountEv
FN:20,22,_ZNK13CXMLBusSystem10RouteCountEv
FN:25,27,_ZNK13CXMLBusSystem11StopByIndexEm
FN:30,32,_ZNK13CXMLBusSystem8StopByIDEm
FN:35,37,_ZNK13CXMLBusSystem12RouteByIndexEm
FN:40,42,_ZNK13CXMLBusSystem11RouteByNameERKNSt7__cxx1112basic_stringIcSt11char_traitsIcESaIcEEE
FN:45,47,_ZNK13CXMLBusSystem13PathByStopIDsEmm
FN:7,11,_ZN13CXMLBusSystemC2ESt10shared_ptrI10CXMLReaderES2_
FNDA:0,_ZN13CXMLBusSystemD0Ev
FNDA:1,_ZN13CXMLBusSystemD2Ev
FNDA:1,_ZNK13CXMLBusSystem9StopCountEv
FNDA:1,_ZNK13CXMLBusSystem10RouteCountEv
FNDA:0,_ZNK13CXMLBusSystem11StopByIndexEm
FNDA:0,_ZNK13CXMLBusSystem8StopByIDEm
FNDA:0,_ZNK13CXMLBusSystem12RouteByIndexEm
FNDA:0,_ZNK13CXMLBusSystem11RouteByNameERKNSt7__cxx1112basic_stringIcSt11char_traitsIcESaIcEEE
FNDA:0,_ZNK13CXMLBusSystem13PathByStopIDsEmm
FNDA:1,_ZN13CXMLBusSystemC2ESt10shared_ptrI10CXMLReaderES2_
FNF:10
FNH:4
DA:7,1
DA:8,1
DA:10,1
DA:11,1
DA:13,1
DA:16,1
DA:17,1
DA:20,1
DA:21,1
DA:25,0
DA:26,0
DA:30,0
DA:31,0
DA:35,0
DA:36,0
DA:40,0
DA:41,0
DA:45,0
DA:46,0
LF:19
LH:9
end_of_record
TN:
SF:/home/mduenez/ECS36B/ECS36B-Project3/src/XMLReader.cpp
FN:12,22,_ZN10CXMLReader15SImplementationC2ESt10shared_ptrI11CDataSourceE
FN:24,26,_ZN10CXMLReader15SImplementationD2Ev
FN:28,43,_ZN10CXMLReader15SImplementation19StartElementHandlerEPvPKcPS3_
FN:45,55,_ZN10CXMLReader15SImplementation17EndElementHandlerEPvPKc
FN:57,75,_ZN10CXMLReader15SImplementation20CharacterDataHandlerEPvPKci
FN:79,81,_ZN10CXMLReaderC2ESt10shared_ptrI11CDataSourceE
FN:83,83,_ZN10CXMLReaderD2Ev
FN:85,88,_ZNK10CXMLReader3EndEv
FN:90,126,_ZN10CXMLReader10ReadEntityER10SXMLEntityb
FNDA:1,_ZN10CXMLReader15SImplementationC2ESt10shared_ptrI11CDataSourceE
FNDA:1,_ZN10CXMLReader15SImplementationD2Ev
FNDA:1,_ZN10CXMLReader15SImplementation19StartElementHandlerEPvPKcPS3_
FNDA:1,_ZN10CXMLReader15SImplementation17EndElementHandlerEPvPKc
FNDA:1,_ZN10CXMLReader15SImplementation20CharacterDataHandlerEPvPKci
FNDA:1,_ZN10CXMLReaderC2ESt10shared_ptrI11CDataSourceE
FNDA:1,_ZN10CXMLReaderD2Ev
FNDA:1,_ZNK10CXMLReader3EndEv
FNDA:4,_ZN10CXMLReader10ReadEntityER10SXMLEntityb
FNF:9
FNH:9
DA:12,1
DA:13,1
DA:15,1
DA:16,1
DA:17,1
DA:20,1
DA:22,1
DA:24,1
DA:25,1
DA:26,1
DA:28,1
DA:32,1
DA:34,1
DA:35,1
DA:36,1
DA:38,2
DA:39,4
DA:42,1
DA:43,1
DA:45,1
DA:48,1
DA:50,1
DA:51,1
DA:52,1
DA:54,1
DA:55,1
DA:57,1
DA:61,1
DA:63,1
DA:66,1
DA:67,0
DA:70,1
DA:71,1
DA:72,1
DA:74,1
DA:75,1
DA:79,1
DA:80,1
DA:81,1
DA:83,1
DA:85,1
DA:86,2
DA:87,2
DA:90,4
DA:92,4
DA:94,5
DA:96,2
DA:98,2
DA:99,1
DA:100,1
DA:101,1
DA:104,1
DA:105,1
DA:106,1
DA:107,1
DA:108,0
DA:109,0
DA:111,2
DA:113,4
DA:114,3
DA:115,3
DA:117,3
DA:118,0
DA:119,0
DA:122,3
DA:125,1
LF:66
LH:61
end_of_record
